; Function Attrs: nofree nounwind uwtable
define dso_local range(i32 0, 2) i32 @string2ull(ptr noundef %0, ptr noundef writeonly captures(none) %1) local_unnamed_addr #6 {
  %3 = alloca ptr, align 8
  %4 = tail call i64 @strlen(ptr noundef nonnull dereferenceable(1) %0) #31
  %5 = add i64 %4, -21
  %or.cond.i = icmp ult i64 %5, -20
  br i1 %or.cond.i, label %.loopexit, label %6

6:                                                ; preds = %2
  %7 = icmp eq i64 %4, 1
  %8 = load i8, ptr %0, align 1, !tbaa !9
  br i1 %7, label %9, label %.thread.i

9:                                                ; preds = %6
  switch i8 %8, label %.thread71.i [
    i8 48, label %string2ll.exit.thread14
    i8 45, label %.loopexit
  ]

.thread.i:                                        ; preds = %6
  %.not60.i = icmp eq i8 %8, 45
  br i1 %.not60.i, label %.thread63.i, label %11

.thread63.i:                                      ; preds = %.thread.i
  %10 = getelementptr inbounds nuw i8, ptr %0, i64 1
  %.pre.i = load i8, ptr %10, align 1, !tbaa !9
  br label %11

11:                                               ; preds = %.thread63.i, %.thread.i
  %12 = phi i8 [ %8, %.thread.i ], [ %.pre.i, %.thread63.i ]
  %.044.i = phi ptr [ %0, %.thread.i ], [ %10, %.thread63.i ]
  %.043.i = phi i64 [ 1, %.thread.i ], [ 2, %.thread63.i ]
  %13 = add i8 %12, -49
  %or.cond57.i = icmp ult i8 %13, 9
  br i1 %or.cond57.i, label %16, label %.loopexit

.thread71.i:                                      ; preds = %9
  %14 = add i8 %8, -49
  %or.cond5775.i = icmp ult i8 %14, 9
  br i1 %or.cond5775.i, label %.thread88.i, label %.loopexit

.thread88.i:                                      ; preds = %.thread71.i
  %narrow83.i = add nsw i8 %8, -48
  %15 = zext nneg i8 %narrow83.i to i64
  br label %string2ll.exit.thread14

16:                                               ; preds = %11
  %narrow.i = add nsw i8 %12, -48
  %17 = zext nneg i8 %narrow.i to i64
  %18 = icmp samesign ult i64 %.043.i, %4
  br i1 %18, label %.lr.ph.i, label %.critedge59.i

.lr.ph.i:                                         ; preds = %16, %27
  %.14570.pn.i = phi ptr [ %.14570.i, %27 ], [ %.044.i, %16 ]
  %.069.i = phi i64 [ %28, %27 ], [ %17, %16 ]
  %.168.i = phi i64 [ %29, %27 ], [ %.043.i, %16 ]
  %.14570.i = getelementptr inbounds nuw i8, ptr %.14570.pn.i, i64 1
  %19 = load i8, ptr %.14570.i, align 1, !tbaa !9
  %20 = add i8 %19, -58
  %or.cond58.i = icmp ult i8 %20, -10
  %21 = icmp ugt i64 %.069.i, 1844674407370955161
  %or.cond65.i = select i1 %or.cond58.i, i1 true, i1 %21
  br i1 %or.cond65.i, label %.loopexit, label %22

22:                                               ; preds = %.lr.ph.i
  %23 = mul nuw i64 %.069.i, 10
  %narrow55.i = add nsw i8 %19, -48
  %24 = zext nneg i8 %narrow55.i to i64
  %25 = xor i64 %24, -1
  %26 = icmp ugt i64 %23, %25
  br i1 %26, label %.loopexit, label %27

27:                                               ; preds = %22
  %28 = add i64 %23, %24
  %29 = add nuw i64 %.168.i, 1
  %exitcond.not.i = icmp eq i64 %29, %4
  br i1 %exitcond.not.i, label %.critedge59.i, label %.lr.ph.i, !llvm.loop !34

.critedge59.i:                                    ; preds = %27, %16
  %.0.lcssa.i = phi i64 [ %17, %16 ], [ %28, %27 ]
  br i1 %.not60.i, label %30, label %32

30:                                               ; preds = %.critedge59.i
  %31 = icmp ugt i64 %.0.lcssa.i, -9223372036854775808
  br i1 %31, label %.loopexit, label %string2ll.exit

32:                                               ; preds = %.critedge59.i
  %33 = icmp slt i64 %.0.lcssa.i, 0
  br i1 %33, label %.loopexit, label %string2ll.exit.thread14

string2ll.exit:                                   ; preds = %30
  %notsub = add i64 %.0.lcssa.i, -1
  %34 = icmp sgt i64 %notsub, -1
  br i1 %34, label %45, label %string2ll.exit.thread14

string2ll.exit.thread14:                          ; preds = %32, %.thread88.i, %9, %string2ll.exit
  %.sink.i16 = phi i64 [ 0, %string2ll.exit ], [ %.0.lcssa.i, %32 ], [ %15, %.thread88.i ], [ 0, %9 ]
  store i64 %.sink.i16, ptr %1, align 8, !tbaa !35
  br label %45

.loopexit:                                        ; preds = %22, %.lr.ph.i, %2, %11, %30, %32, %9, %.thread71.i
  %35 = tail call ptr @__errno_location() #30
  store i32 0, ptr %35, align 4, !tbaa !5
  call void @llvm.lifetime.start.p0(i64 8, ptr nonnull %3) #29
  store ptr null, ptr %3, align 8, !tbaa !27
  %36 = call i64 @strtoull(ptr noundef nonnull %0, ptr noundef nonnull %3, i32 noundef 10) #29
  store i64 %36, ptr %1, align 8, !tbaa !35
  %37 = load i32, ptr %35, align 4, !tbaa !5
  switch i32 %37, label %38 [
    i32 22, label %44
    i32 34, label %44
  ]

38:                                               ; preds = %.loopexit
  %39 = load i8, ptr %0, align 1, !tbaa !9
  %.not8 = icmp eq i8 %39, 0
  br i1 %.not8, label %44, label %40

40:                                               ; preds = %38
  %41 = load ptr, ptr %3, align 8, !tbaa !27
  %42 = load i8, ptr %41, align 1, !tbaa !9
  %43 = icmp eq i8 %42, 0
  %spec.select = zext i1 %43 to i32
  br label %44

44:                                               ; preds = %40, %38, %.loopexit, %.loopexit
  %.1 = phi i32 [ 0, %.loopexit ], [ 0, %.loopexit ], [ 0, %38 ], [ %spec.select, %40 ]
  call void @llvm.lifetime.end.p0(i64 8, ptr nonnull %3) #29
  br label %45

45:                                               ; preds = %string2ll.exit, %44, %string2ll.exit.thread14
  %.0 = phi i32 [ 1, %string2ll.exit.thread14 ], [ %.1, %44 ], [ 0, %string2ll.exit ]
  ret i32 %.0
}